target datalayout = "e-m:e-p270:32:32-p271:32:32-p272:64:64-i64:64-i128:128-f80:128-n8:16:32:64-S128"
target triple = "x86_64-pc-linux-gnu"

%struct.Dch_Pars_t_ = type { i32, i32, i32, i32, i32, i32, i32, i32, i32, i32, i32, i32, i32, i32, i64, i32, i32 }

; Function Attrs: nounwind uwtable
define ptr @Abc_NtkTestTimPerformSynthesis(ptr noundef %0, i32 noundef %1) #0 {
  %3 = alloca ptr, align 8
  %4 = alloca i32, align 4
  %5 = alloca ptr, align 8
  %6 = alloca ptr, align 8
  %7 = alloca ptr, align 8
  %8 = alloca %struct.Dch_Pars_t_, align 8
  %9 = alloca ptr, align 8
  store ptr %0, ptr %3, align 8
  store i32 %1, ptr %4, align 4
  store ptr %8, ptr %9, align 8
  %10 = load ptr, ptr %9, align 8
  call void @Dch_ManSetDefaultParams(ptr noundef %10)
  %11 = load ptr, ptr %3, align 8
  %12 = call ptr @Gia_ManToAig(ptr noundef %11, i32 noundef 0)
  store ptr %12, ptr %6, align 8
  %13 = load i32, ptr %4, align 4
  %14 = icmp ne i32 %13, 0
  br i1 %14, label %15, label %19

15:                                               ; preds = %2
  %16 = load ptr, ptr %6, align 8
  %17 = load ptr, ptr %9, align 8
  %18 = call ptr @Dar_ManChoiceNew(ptr noundef %16, ptr noundef %17)
  store ptr %18, ptr %6, align 8
  br label %23

19:                                               ; preds = %2
  %20 = load ptr, ptr %6, align 8
  store ptr %20, ptr %7, align 8
  %21 = call ptr @Dar_ManCompress2(ptr noundef %20, i32 noundef 1, i32 noundef 1, i32 noundef 1, i32 noundef 0, i32 noundef 0)
  store ptr %21, ptr %6, align 8
  %22 = load ptr, ptr %7, align 8
  call void @Aig_ManStop(ptr noundef %22)
  br label %23

23:                                               ; preds = %19, %15
  %24 = load ptr, ptr %6, align 8
  %25 = call ptr @Gia_ManFromAig(ptr noundef %24)
  store ptr %25, ptr %5, align 8
  %26 = load ptr, ptr %6, align 8
  call void @Aig_ManStop(ptr noundef %26)
  %27 = load ptr, ptr %5, align 8
  ret ptr %27
}