; Function Attrs: nounwind uwtable
define ptr @Abc_NtkTestTimPerformSynthesis(ptr noundef %0, i32 noundef %1) local_unnamed_addr #0 {
  %3 = alloca %struct.Dch_Pars_t_, align 8
  call void @Dch_ManSetDefaultParams(ptr noundef nonnull %3) #11
  %4 = call ptr @Gia_ManToAig(ptr noundef %0, i32 noundef 0) #11
  %.not = icmp eq i32 %1, 0
  br i1 %.not, label %7, label %5

5:                                                ; preds = %2
  %6 = call ptr @Dar_ManChoiceNew(ptr noundef %4, ptr noundef nonnull %3) #11
  br label %9

7:                                                ; preds = %2
  %8 = call ptr @Dar_ManCompress2(ptr noundef %4, i32 noundef 1, i32 noundef 1, i32 noundef 1, i32 noundef 0, i32 noundef 0) #11
  call void @Aig_ManStop(ptr noundef %4) #11
  br label %9

9:                                                ; preds = %7, %5
  %.0 = phi ptr [ %6, %5 ], [ %8, %7 ]
  %10 = call ptr @Gia_ManFromAig(ptr noundef %.0) #11
  call void @Aig_ManStop(ptr noundef %.0) #11
  ret ptr %10
}